target datalayout = "e-m:e-p270:32:32-p271:32:32-p272:64:64-i64:64-i128:128-f80:128-n8:16:32:64-S128"
target triple = "x86_64-pc-linux-gnu"

%struct.archive_write = type { %struct.archive, i32, i64, i64, ptr, i64, ptr, ptr, ptr, ptr, ptr, i32, i32, ptr, ptr, ptr, ptr, ptr, ptr, ptr, ptr, ptr, ptr, ptr, ptr, ptr, ptr }
%struct.archive = type { i32, i32, ptr, i32, ptr, i32, i32, ptr, %struct.archive_string, ptr, i32, i32, ptr, ptr, i64, i64, i64, i8, i64 }
%struct.archive_string = type { ptr, i64, i64 }
%struct.pax = type { i64, i64, %struct.archive_string, %struct.archive_string, %struct.archive_string, i64, ptr, ptr, ptr, i32, i32 }

@.str.59 = private unnamed_addr constant [15 x i8] c"SCHILY.acl.ace\00", align 1
@.str.60 = private unnamed_addr constant [18 x i8] c"SCHILY.acl.access\00", align 1
@.str.61 = private unnamed_addr constant [19 x i8] c"SCHILY.acl.default\00", align 1
@.str.62 = private unnamed_addr constant [6 x i8] c"%s %s\00", align 1
@.str.63 = private unnamed_addr constant [27 x i8] c"Can't allocate memory for \00", align 1
@.str.64 = private unnamed_addr constant [9 x i8] c"%s %s %s\00", align 1
@.str.65 = private unnamed_addr constant [17 x i8] c"Can't translate \00", align 1
@.str.66 = private unnamed_addr constant [10 x i8] c" to UTF-8\00", align 1

; Function Attrs: nounwind uwtable
define internal void @add_pax_attr(ptr noundef %0, ptr noundef %1, ptr noundef %2) #0 {
  %4 = alloca ptr, align 8
  %5 = alloca ptr, align 8
  %6 = alloca ptr, align 8
  store ptr %0, ptr %4, align 8
  store ptr %1, ptr %5, align 8
  store ptr %2, ptr %6, align 8
  %7 = load ptr, ptr %4, align 8
  %8 = load ptr, ptr %5, align 8
  %9 = load ptr, ptr %6, align 8
  %10 = load ptr, ptr %6, align 8
  %11 = call i64 @strlen(ptr noundef %10) #9
  call void @add_pax_attr_binary(ptr noundef %7, ptr noundef %8, ptr noundef %9, i64 noundef %11)
  ret void
}

; Function Attrs: nounwind uwtable
define internal i32 @add_pax_acl(ptr noundef %0, ptr noundef %1, ptr noundef %2, i32 noundef %3) #0 {
  %5 = alloca i32, align 4
  %6 = alloca ptr, align 8
  %7 = alloca ptr, align 8
  %8 = alloca ptr, align 8
  %9 = alloca i32, align 4
  %10 = alloca ptr, align 8
  %11 = alloca ptr, align 8
  %12 = alloca i32, align 4
  store ptr %0, ptr %6, align 8
  store ptr %1, ptr %7, align 8
  store ptr %2, ptr %8, align 8
  store i32 %3, ptr %9, align 4
  %13 = load ptr, ptr %7, align 8
  %14 = call i32 @archive_entry_acl_types(ptr noundef %13)
  store i32 %14, ptr %12, align 4
  %15 = load i32, ptr %12, align 4
  %16 = and i32 %15, 15360
  %17 = icmp ne i32 %16, 0
  br i1 %17, label %18, label %19

18:                                               ; preds = %4
  store ptr @.str.59, ptr %11, align 8
  br label %32

19:                                               ; preds = %4
  %20 = load i32, ptr %9, align 4
  %21 = and i32 %20, 256
  %22 = icmp ne i32 %21, 0
  br i1 %22, label %23, label %24

23:                                               ; preds = %19
  store ptr @.str.60, ptr %11, align 8
  br label %31

24:                                               ; preds = %19
  %25 = load i32, ptr %9, align 4
  %26 = and i32 %25, 512
  %27 = icmp ne i32 %26, 0
  br i1 %27, label %28, label %29

28:                                               ; preds = %24
  store ptr @.str.61, ptr %11, align 8
  br label %30

29:                                               ; preds = %24
  store i32 -30, ptr %5, align 4
  br label %65

30:                                               ; preds = %28
  br label %31

31:                                               ; preds = %30, %23
  br label %32

32:                                               ; preds = %31, %18
  %33 = load ptr, ptr %7, align 8
  %34 = load i32, ptr %9, align 4
  %35 = load ptr, ptr %8, align 8
  %36 = getelementptr inbounds %struct.pax, ptr %35, i32 0, i32 8
  %37 = load ptr, ptr %36, align 8
  %38 = call ptr @_archive_entry_acl_to_text_l(ptr noundef %33, ptr noundef null, i32 noundef %34, ptr noundef %37)
  store ptr %38, ptr %10, align 8
  %39 = load ptr, ptr %10, align 8
  %40 = icmp eq ptr %39, null
  br i1 %40, label %41, label %53

41:                                               ; preds = %32
  %42 = call ptr @__errno_location() #12
  %43 = load i32, ptr %42, align 4
  %44 = icmp eq i32 %43, 12
  br i1 %44, label %45, label %49

45:                                               ; preds = %41
  %46 = load ptr, ptr %6, align 8
  %47 = getelementptr inbounds %struct.archive_write, ptr %46, i32 0, i32 0
  %48 = load ptr, ptr %11, align 8
  call void (ptr, i32, ptr, ...) @archive_set_error(ptr noundef %47, i32 noundef 12, ptr noundef @.str.62, ptr noundef @.str.63, ptr noundef %48)
  store i32 -30, ptr %5, align 4
  br label %65

49:                                               ; preds = %41
  %50 = load ptr, ptr %6, align 8
  %51 = getelementptr inbounds %struct.archive_write, ptr %50, i32 0, i32 0
  %52 = load ptr, ptr %11, align 8
  call void (ptr, i32, ptr, ...) @archive_set_error(ptr noundef %51, i32 noundef 84, ptr noundef @.str.64, ptr noundef @.str.65, ptr noundef %52, ptr noundef @.str.66)
  store i32 -20, ptr %5, align 4
  br label %65

53:                                               ; preds = %32
  %54 = load ptr, ptr %10, align 8
  %55 = load i8, ptr %54, align 1
  %56 = sext i8 %55 to i32
  %57 = icmp ne i32 %56, 0
  br i1 %57, label %58, label %63

58:                                               ; preds = %53
  %59 = load ptr, ptr %8, align 8
  %60 = getelementptr inbounds %struct.pax, ptr %59, i32 0, i32 3
  %61 = load ptr, ptr %11, align 8
  %62 = load ptr, ptr %10, align 8
  call void @add_pax_attr(ptr noundef %60, ptr noundef %61, ptr noundef %62)
  br label %63

63:                                               ; preds = %58, %53
  %64 = load ptr, ptr %10, align 8
  call void @free(ptr noundef %64) #11
  store i32 0, ptr %5, align 4
  br label %65

65:                                               ; preds = %63, %49, %45, %29
  %66 = load i32, ptr %5, align 4
  ret i32 %66
}