; Function Attrs: nounwind uwtable
define internal fastcc range(i32 -30, 1) i32 @add_pax_acl(ptr noundef %0, ptr noundef %1, ptr noundef %2, i32 noundef range(i32 25, 522) %3) unnamed_addr #0 {
  %5 = tail call i32 @archive_entry_acl_types(ptr noundef %1) #15
  %6 = and i32 %5, 15360
  %.not = icmp eq i32 %6, 0
  br i1 %.not, label %7, label %10

7:                                                ; preds = %4
  %8 = and i32 %3, 256
  %.not19 = icmp eq i32 %8, 0
  br i1 %.not19, label %9, label %10

9:                                                ; preds = %7
  %.not20 = icmp samesign ult i32 %3, 512
  br i1 %.not20, label %27, label %10

10:                                               ; preds = %9, %7, %4
  %.017 = phi ptr [ @.str.59, %4 ], [ @.str.60, %7 ], [ @.str.61, %9 ]
  %11 = getelementptr inbounds nuw i8, ptr %2, i64 112
  %12 = load ptr, ptr %11, align 8
  %13 = tail call ptr @_archive_entry_acl_to_text_l(ptr noundef %1, ptr noundef null, i32 noundef %3, ptr noundef %12) #15
  %14 = icmp eq ptr %13, null
  br i1 %14, label %15, label %21

15:                                               ; preds = %10
  %16 = tail call ptr @__errno_location() #18
  %17 = load i32, ptr %16, align 4
  %18 = icmp eq i32 %17, 12
  br i1 %18, label %19, label %20

19:                                               ; preds = %15
  tail call void (ptr, i32, ptr, ...) @archive_set_error(ptr noundef %0, i32 noundef 12, ptr noundef nonnull @.str.62, ptr noundef nonnull @.str.63, ptr noundef nonnull %.017) #15
  br label %27

20:                                               ; preds = %15
  tail call void (ptr, i32, ptr, ...) @archive_set_error(ptr noundef %0, i32 noundef 84, ptr noundef nonnull @.str.64, ptr noundef nonnull @.str.65, ptr noundef nonnull %.017, ptr noundef nonnull @.str.66) #15
  br label %27

21:                                               ; preds = %10
  %22 = load i8, ptr %13, align 1
  %.not21 = icmp eq i8 %22, 0
  br i1 %.not21, label %26, label %23

23:                                               ; preds = %21
  %24 = getelementptr inbounds nuw i8, ptr %2, i64 40
  %25 = tail call i64 @strlen(ptr noundef nonnull dereferenceable(1) %13) #17
  tail call fastcc void @add_pax_attr_binary(ptr noundef nonnull %24, ptr noundef nonnull %.017, ptr noundef nonnull %13, i64 noundef %25)
  br label %26

26:                                               ; preds = %23, %21
  tail call void @free(ptr noundef nonnull %13) #15
  br label %27

27:                                               ; preds = %9, %26, %20, %19
  %.0 = phi i32 [ -30, %19 ], [ -20, %20 ], [ 0, %26 ], [ -30, %9 ]
  ret i32 %.0
}